target datalayout = "e-m:e-p270:32:32-p271:32:32-p272:64:64-i64:64-i128:128-f80:128-n8:16:32:64-S128"
target triple = "x86_64-pc-linux-gnu"

%struct.lv_area_t = type { i32, i32, i32, i32 }
%struct._lv_obj_t = type { ptr, ptr, ptr, ptr, ptr, %struct.lv_area_t, i32, i16, i16 }

; Function Attrs: nounwind uwtable
define void @lv_obj_mark_layout_as_dirty(ptr noundef %0) #0 {
  %2 = alloca ptr, align 8
  %3 = alloca ptr, align 8
  %4 = alloca ptr, align 8
  store ptr %0, ptr %2, align 8, !tbaa !3
  %5 = load ptr, ptr %2, align 8, !tbaa !3
  %6 = getelementptr inbounds nuw %struct._lv_obj_t, ptr %5, i32 0, i32 8
  %7 = load i16, ptr %6, align 2
  %8 = and i16 %7, -2
  %9 = or i16 %8, 1
  store i16 %9, ptr %6, align 2
  call void @llvm.lifetime.start.p0(i64 8, ptr %3) #5
  %10 = load ptr, ptr %2, align 8, !tbaa !3
  %11 = call ptr @lv_obj_get_screen(ptr noundef %10)
  store ptr %11, ptr %3, align 8, !tbaa !3
  %12 = load ptr, ptr %3, align 8, !tbaa !3
  %13 = getelementptr inbounds nuw %struct._lv_obj_t, ptr %12, i32 0, i32 8
  %14 = load i16, ptr %13, align 2
  %15 = and i16 %14, -5
  %16 = or i16 %15, 4
  store i16 %16, ptr %13, align 2
  call void @llvm.lifetime.start.p0(i64 8, ptr %4) #5
  %17 = load ptr, ptr %3, align 8, !tbaa !3
  %18 = call ptr @lv_obj_get_display(ptr noundef %17)
  store ptr %18, ptr %4, align 8, !tbaa !3
  %19 = load ptr, ptr %4, align 8, !tbaa !3
  %20 = call i32 @lv_display_send_event(ptr noundef %19, i32 noundef 56, ptr noundef null)
  call void @llvm.lifetime.end.p0(i64 8, ptr %4) #5
  call void @llvm.lifetime.end.p0(i64 8, ptr %3) #5
  ret void
}