; Function Attrs: nounwind uwtable
define void @lv_obj_mark_layout_as_dirty(ptr noundef %0) local_unnamed_addr #0 {
  %2 = getelementptr inbounds nuw i8, ptr %0, i64 62
  %3 = load i16, ptr %2, align 2
  %4 = or i16 %3, 1
  store i16 %4, ptr %2, align 2
  %5 = tail call ptr @lv_obj_get_screen(ptr noundef %0) #8
  %6 = getelementptr inbounds nuw i8, ptr %5, i64 62
  %7 = load i16, ptr %6, align 2
  %8 = or i16 %7, 4
  store i16 %8, ptr %6, align 2
  %9 = tail call ptr @lv_obj_get_display(ptr noundef %5) #8
  %10 = tail call i32 @lv_display_send_event(ptr noundef %9, i32 noundef 56, ptr noundef null) #8
  ret void
}